; Function Attrs: nounwind uwtable
define dso_local void @zend_recalc_live_ranges(ptr noundef initializes((144, 148)) %0, ptr noundef captures(address_is_null) %1) local_unnamed_addr #0 {
  %3 = getelementptr inbounds nuw i8, ptr %0, i64 152
  %4 = load ptr, ptr %3, align 8, !tbaa !56, !nonnull !41, !noundef !41
  tail call void @_efree(ptr noundef nonnull %4) #14
  store ptr null, ptr %3, align 8, !tbaa !56
  %5 = getelementptr inbounds nuw i8, ptr %0, i64 144
  store i32 0, ptr %5, align 8, !tbaa !163
  tail call fastcc void @zend_calc_live_ranges(ptr noundef %0, ptr noundef %1)
  ret void
}